target datalayout = "e-m:e-p270:32:32-p271:32:32-p272:64:64-i64:64-i128:128-f80:128-n8:16:32:64-S128"
target triple = "x86_64-pc-linux-gnu"

%class.AbstractDumpWriter = type <{ ptr, ptr, i64, i64, i8, i8, [6 x i8] }>
%class.DumpWriter = type { %class.AbstractDumpWriter.base, ptr, ptr, i64, ptr, ptr, i64, i64, ptr, i64 }
%class.AbstractDumpWriter.base = type <{ ptr, ptr, i64, i64, i8, i8 }>

; Function Attrs: mustprogress nounwind uwtable
define linkonce_odr hidden void @_ZN10DumpWriter9set_errorEPKc(ptr noundef nonnull align 8 dereferenceable(112) %0, ptr noundef %1) #1 comdat align 2 {
  %3 = alloca ptr, align 8
  %4 = alloca ptr, align 8
  store ptr %0, ptr %3, align 8
  store ptr %1, ptr %4, align 8
  %5 = load ptr, ptr %3, align 8
  %6 = load ptr, ptr %4, align 8
  %7 = getelementptr inbounds %class.DumpWriter, ptr %5, i32 0, i32 4
  store ptr %6, ptr %7, align 8
  ret void
}

; Function Attrs: mustprogress nounwind uwtable
define hidden void @_ZN10DumpWriter11do_compressEv(ptr noundef nonnull align 8 dereferenceable(112) %0) #1 align 2 {
  %2 = alloca ptr, align 8
  %3 = alloca ptr, align 8
  store ptr %0, ptr %2, align 8
  %4 = load ptr, ptr %2, align 8
  %5 = getelementptr inbounds %class.DumpWriter, ptr %4, i32 0, i32 2
  %6 = load ptr, ptr %5, align 8
  %7 = getelementptr inbounds %class.AbstractDumpWriter, ptr %4, i32 0, i32 1
  %8 = load ptr, ptr %7, align 8
  %9 = getelementptr inbounds %class.AbstractDumpWriter, ptr %4, i32 0, i32 3
  %10 = load i64, ptr %9, align 8
  %11 = getelementptr inbounds %class.DumpWriter, ptr %4, i32 0, i32 5
  %12 = load ptr, ptr %11, align 8
  %13 = getelementptr inbounds %class.DumpWriter, ptr %4, i32 0, i32 6
  %14 = load i64, ptr %13, align 8
  %15 = getelementptr inbounds %class.DumpWriter, ptr %4, i32 0, i32 8
  %16 = load ptr, ptr %15, align 8
  %17 = getelementptr inbounds %class.DumpWriter, ptr %4, i32 0, i32 9
  %18 = load i64, ptr %17, align 8
  %19 = getelementptr inbounds %class.DumpWriter, ptr %4, i32 0, i32 7
  %20 = load ptr, ptr %6, align 8
  %21 = getelementptr inbounds ptr, ptr %20, i64 3
  %22 = load ptr, ptr %21, align 8
  %23 = call noundef ptr %22(ptr noundef nonnull align 8 dereferenceable(8) %6, ptr noundef %8, i64 noundef %10, ptr noundef %12, i64 noundef %14, ptr noundef %16, i64 noundef %18, ptr noundef %19)
  store ptr %23, ptr %3, align 8
  %24 = load ptr, ptr %3, align 8
  %25 = icmp ne ptr %24, null
  br i1 %25, label %26, label %28

26:                                               ; preds = %1
  %27 = load ptr, ptr %3, align 8
  call void @_ZN10DumpWriter9set_errorEPKc(ptr noundef nonnull align 8 dereferenceable(112) %4, ptr noundef %27)
  br label %28

28:                                               ; preds = %26, %1
  ret void
}

; Function Attrs: mustprogress nounwind uwtable
define linkonce_odr hidden noundef zeroext i1 @_ZNK10DumpWriter9has_errorEv(ptr noundef nonnull align 8 dereferenceable(112) %0) #1 comdat align 2 {
  %2 = alloca ptr, align 8
  store ptr %0, ptr %2, align 8
  %3 = load ptr, ptr %2, align 8
  %4 = getelementptr inbounds %class.DumpWriter, ptr %3, i32 0, i32 4
  %5 = load ptr, ptr %4, align 8
  %6 = icmp ne ptr %5, null
  ret i1 %6
}

; Function Attrs: mustprogress nounwind uwtable
define hidden void @_ZN10DumpWriter5flushEv(ptr noundef nonnull align 8 dereferenceable(112) %0) unnamed_addr #1 align 2 {
  %2 = alloca ptr, align 8
  %3 = alloca ptr, align 8
  store ptr %0, ptr %2, align 8
  %4 = load ptr, ptr %2, align 8
  %5 = getelementptr inbounds %class.AbstractDumpWriter, ptr %4, i32 0, i32 3
  %6 = load i64, ptr %5, align 8
  %7 = icmp ule i64 %6, 0
  br i1 %7, label %8, label %9

8:                                                ; preds = %1
  br label %58

9:                                                ; preds = %1
  %10 = call noundef zeroext i1 @_ZNK10DumpWriter9has_errorEv(ptr noundef nonnull align 8 dereferenceable(112) %4)
  br i1 %10, label %11, label %13

11:                                               ; preds = %9
  %12 = getelementptr inbounds %class.AbstractDumpWriter, ptr %4, i32 0, i32 3
  store i64 0, ptr %12, align 8
  br label %58

13:                                               ; preds = %9
  store ptr null, ptr %3, align 8
  %14 = getelementptr inbounds %class.DumpWriter, ptr %4, i32 0, i32 2
  %15 = load ptr, ptr %14, align 8
  %16 = icmp eq ptr %15, null
  br i1 %16, label %17, label %33

17:                                               ; preds = %13
  %18 = getelementptr inbounds %class.DumpWriter, ptr %4, i32 0, i32 1
  %19 = load ptr, ptr %18, align 8
  %20 = getelementptr inbounds %class.AbstractDumpWriter, ptr %4, i32 0, i32 1
  %21 = load ptr, ptr %20, align 8
  %22 = getelementptr inbounds %class.AbstractDumpWriter, ptr %4, i32 0, i32 3
  %23 = load i64, ptr %22, align 8
  %24 = load ptr, ptr %19, align 8
  %25 = getelementptr inbounds ptr, ptr %24, i64 3
  %26 = load ptr, ptr %25, align 8
  %27 = call noundef ptr %26(ptr noundef nonnull align 8 dereferenceable(24) %19, ptr noundef %21, i64 noundef %23)
  store ptr %27, ptr %3, align 8
  %28 = getelementptr inbounds %class.AbstractDumpWriter, ptr %4, i32 0, i32 3
  %29 = load i64, ptr %28, align 8
  %30 = getelementptr inbounds %class.DumpWriter, ptr %4, i32 0, i32 3
  %31 = load i64, ptr %30, align 8
  %32 = add i64 %31, %29
  store i64 %32, ptr %30, align 8
  br label %52

33:                                               ; preds = %13
  call void @_ZN10DumpWriter11do_compressEv(ptr noundef nonnull align 8 dereferenceable(112) %4)
  %34 = call noundef zeroext i1 @_ZNK10DumpWriter9has_errorEv(ptr noundef nonnull align 8 dereferenceable(112) %4)
  br i1 %34, label %51, label %35

35:                                               ; preds = %33
  %36 = getelementptr inbounds %class.DumpWriter, ptr %4, i32 0, i32 1
  %37 = load ptr, ptr %36, align 8
  %38 = getelementptr inbounds %class.DumpWriter, ptr %4, i32 0, i32 5
  %39 = load ptr, ptr %38, align 8
  %40 = getelementptr inbounds %class.DumpWriter, ptr %4, i32 0, i32 7
  %41 = load i64, ptr %40, align 8
  %42 = load ptr, ptr %37, align 8
  %43 = getelementptr inbounds ptr, ptr %42, i64 3
  %44 = load ptr, ptr %43, align 8
  %45 = call noundef ptr %44(ptr noundef nonnull align 8 dereferenceable(24) %37, ptr noundef %39, i64 noundef %41)
  store ptr %45, ptr %3, align 8
  %46 = getelementptr inbounds %class.DumpWriter, ptr %4, i32 0, i32 7
  %47 = load i64, ptr %46, align 8
  %48 = getelementptr inbounds %class.DumpWriter, ptr %4, i32 0, i32 3
  %49 = load i64, ptr %48, align 8
  %50 = add i64 %49, %47
  store i64 %50, ptr %48, align 8
  br label %51

51:                                               ; preds = %35, %33
  br label %52

52:                                               ; preds = %51, %17
  %53 = getelementptr inbounds %class.AbstractDumpWriter, ptr %4, i32 0, i32 3
  store i64 0, ptr %53, align 8
  %54 = load ptr, ptr %3, align 8
  %55 = icmp ne ptr %54, null
  br i1 %55, label %56, label %58

56:                                               ; preds = %52
  %57 = load ptr, ptr %3, align 8
  call void @_ZN10DumpWriter9set_errorEPKc(ptr noundef nonnull align 8 dereferenceable(112) %4, ptr noundef %57)
  br label %58

58:                                               ; preds = %56, %52, %11, %8
  ret void
}