; Function Attrs: mustprogress nounwind uwtable
define hidden void @_ZN10DumpWriter5flushEv(ptr noundef nonnull align 8 dereferenceable(112) %0) unnamed_addr #3 align 2 {
  %2 = getelementptr inbounds i8, ptr %0, i64 24
  %3 = load i64, ptr %2, align 8
  %4 = icmp eq i64 %3, 0
  br i1 %4, label %53, label %5

5:                                                ; preds = %1
  %6 = getelementptr inbounds i8, ptr %0, i64 64
  %7 = load ptr, ptr %6, align 8
  %.not5 = icmp eq ptr %7, null
  br i1 %.not5, label %9, label %8

8:                                                ; preds = %5
  store i64 0, ptr %2, align 8
  br label %53

9:                                                ; preds = %5
  %10 = getelementptr inbounds i8, ptr %0, i64 48
  %11 = load ptr, ptr %10, align 8
  %12 = icmp eq ptr %11, null
  br i1 %12, label %13, label %22

13:                                               ; preds = %9
  %14 = getelementptr inbounds i8, ptr %0, i64 40
  %15 = load ptr, ptr %14, align 8
  %16 = getelementptr inbounds i8, ptr %0, i64 8
  %17 = load ptr, ptr %16, align 8
  %18 = load ptr, ptr %15, align 8
  %19 = getelementptr inbounds i8, ptr %18, i64 24
  %20 = load ptr, ptr %19, align 8
  %21 = tail call noundef ptr %20(ptr noundef nonnull align 8 dereferenceable(24) %15, ptr noundef %17, i64 noundef %3) #19
  br label %47

22:                                               ; preds = %9
  %23 = getelementptr inbounds i8, ptr %0, i64 8
  %24 = load ptr, ptr %23, align 8
  %25 = getelementptr inbounds i8, ptr %0, i64 72
  %26 = load ptr, ptr %25, align 8
  %27 = getelementptr inbounds i8, ptr %0, i64 80
  %28 = load i64, ptr %27, align 8
  %29 = getelementptr inbounds i8, ptr %0, i64 96
  %30 = load ptr, ptr %29, align 8
  %31 = getelementptr inbounds i8, ptr %0, i64 104
  %32 = load i64, ptr %31, align 8
  %33 = getelementptr inbounds i8, ptr %0, i64 88
  %34 = load ptr, ptr %11, align 8
  %35 = getelementptr inbounds i8, ptr %34, i64 24
  %36 = load ptr, ptr %35, align 8
  %37 = tail call noundef ptr %36(ptr noundef nonnull align 8 dereferenceable(8) %11, ptr noundef %24, i64 noundef %3, ptr noundef %26, i64 noundef %28, ptr noundef %30, i64 noundef %32, ptr noundef nonnull %33) #19
  %.not.i = icmp eq ptr %37, null
  br i1 %.not.i, label %_ZN10DumpWriter11do_compressEv.exit, label %_ZN10DumpWriter11do_compressEv.exit.thread

_ZN10DumpWriter11do_compressEv.exit.thread:       ; preds = %22
  store ptr %37, ptr %6, align 8
  br label %.thread

_ZN10DumpWriter11do_compressEv.exit:              ; preds = %22
  %.pr = load ptr, ptr %6, align 8
  %.not6 = icmp eq ptr %.pr, null
  br i1 %.not6, label %38, label %.thread

38:                                               ; preds = %_ZN10DumpWriter11do_compressEv.exit
  %39 = getelementptr inbounds i8, ptr %0, i64 40
  %40 = load ptr, ptr %39, align 8
  %41 = load ptr, ptr %25, align 8
  %42 = load i64, ptr %33, align 8
  %43 = load ptr, ptr %40, align 8
  %44 = getelementptr inbounds i8, ptr %43, i64 24
  %45 = load ptr, ptr %44, align 8
  %46 = tail call noundef ptr %45(ptr noundef nonnull align 8 dereferenceable(24) %40, ptr noundef %41, i64 noundef %42) #19
  br label %47

.thread:                                          ; preds = %_ZN10DumpWriter11do_compressEv.exit, %_ZN10DumpWriter11do_compressEv.exit.thread
  store i64 0, ptr %2, align 8
  br label %53

47:                                               ; preds = %38, %13
  %.sink = phi ptr [ %33, %38 ], [ %2, %13 ]
  %.0 = phi ptr [ %46, %38 ], [ %21, %13 ]
  %48 = load i64, ptr %.sink, align 8
  %49 = getelementptr inbounds i8, ptr %0, i64 56
  %50 = load i64, ptr %49, align 8
  %51 = add i64 %50, %48
  store i64 %51, ptr %49, align 8
  store i64 0, ptr %2, align 8
  %.not = icmp eq ptr %.0, null
  br i1 %.not, label %53, label %52

52:                                               ; preds = %47
  store ptr %.0, ptr %6, align 8
  br label %53

53:                                               ; preds = %.thread, %1, %52, %47, %8
  ret void
}